target datalayout = "e-m:e-p270:32:32-p271:32:32-p272:64:64-i64:64-i128:128-f80:128-n8:16:32:64-S128"
target triple = "x86_64-pc-linux-gnu"

%struct.PaAlsaStream = type { %struct.PaUtilStreamRepresentation, %struct.PaUtilCpuLoadMeasurer, %struct.PaUtilBufferProcessor, %struct.PaUnixThread, i64, i64, i32, i32, i32, i32, ptr, i32, i32, i32, i32, %struct.PaUnixMutex, i32, double, double, %struct.PaAlsaStreamComponent, %struct.PaAlsaStreamComponent }
%struct.PaUtilStreamRepresentation = type { i64, ptr, ptr, ptr, ptr, ptr, %struct.PaStreamInfo }
%struct.PaStreamInfo = type { i32, double, double, double }
%struct.PaUtilCpuLoadMeasurer = type { double, double, double }
%struct.PaUtilBufferProcessor = type { i64, i64, i32, i32, i32, i32, i64, i32, i32, i32, i32, ptr, ptr, i32, i32, i32, i32, ptr, ptr, i64, i64, ptr, ptr, i64, ptr, ptr, i64, ptr, i64, i32, [2 x i64], [2 x ptr], i32, [2 x i64], [2 x ptr], %struct.PaUtilTriangularDitherGenerator, double, ptr, ptr }
%struct.PaUtilTriangularDitherGenerator = type { i32, i32, i32 }
%struct.PaUnixThread = type { i64, i32, i32, i32, %struct.PaUnixMutex, %union.pthread_cond_t, i32, i32 }
%union.pthread_cond_t = type { %struct.__pthread_cond_s }
%struct.__pthread_cond_s = type { %union.__atomic_wide_counter, %union.__atomic_wide_counter, [2 x i32], [2 x i32], i32, i32, [2 x i32] }
%union.__atomic_wide_counter = type { i64 }
%struct.PaUnixMutex = type { %union.pthread_mutex_t }
%union.pthread_mutex_t = type { %struct.__pthread_mutex_s }
%struct.__pthread_mutex_s = type { i32, i32, i32, i32, i32, i16, i16, %struct.__pthread_internal_list }
%struct.__pthread_internal_list = type { ptr, ptr }
%struct.PaAlsaStreamComponent = type { i64, i32, i32, i32, i32, i32, ptr, i32, i32, i32, i32, ptr, i64, i64, i32, i32, i32, ptr, i64, i32, ptr }
%struct.PaStreamCallbackTimeInfo = type { double, double, double }
%struct.timespec = type { i64, i64 }

@alsa_snd_pcm_status = internal global ptr null, align 8
@alsa_snd_pcm_status_sizeof = internal global ptr null, align 8
@alsa_snd_pcm_status_get_htstamp = internal global ptr null, align 8
@alsa_snd_pcm_status_get_trigger_htstamp = internal global ptr null, align 8
@alsa_snd_pcm_status_get_delay = internal global ptr null, align 8

; Function Attrs: nounwind uwtable
define internal double @StatusToTime(ptr noundef %0, i32 noundef %1, ptr noundef %2) #0 {
  %4 = alloca ptr, align 8
  %5 = alloca i32, align 4
  %6 = alloca ptr, align 8
  %7 = alloca %struct.timespec, align 8
  store ptr %0, ptr %4, align 8, !tbaa !98
  store i32 %1, ptr %5, align 4, !tbaa !8
  store ptr %2, ptr %6, align 8, !tbaa !206
  call void @llvm.lifetime.start.p0(i64 16, ptr %7) #17
  %8 = load i32, ptr %5, align 4, !tbaa !8
  %9 = icmp ne i32 %8, 0
  br i1 %9, label %10, label %13

10:                                               ; preds = %3
  %11 = load ptr, ptr @alsa_snd_pcm_status_get_trigger_htstamp, align 8, !tbaa !32
  %12 = load ptr, ptr %4, align 8, !tbaa !98
  call void %11(ptr noundef %12, ptr noundef %7)
  br label %16

13:                                               ; preds = %3
  %14 = load ptr, ptr @alsa_snd_pcm_status_get_htstamp, align 8, !tbaa !32
  %15 = load ptr, ptr %4, align 8, !tbaa !98
  call void %14(ptr noundef %15, ptr noundef %7)
  br label %16

16:                                               ; preds = %13, %10
  %17 = load ptr, ptr %6, align 8, !tbaa !206
  %18 = icmp ne ptr %17, null
  br i1 %18, label %19, label %24

19:                                               ; preds = %16
  %20 = load ptr, ptr @alsa_snd_pcm_status_get_delay, align 8, !tbaa !32
  %21 = load ptr, ptr %4, align 8, !tbaa !98
  %22 = call i64 %20(ptr noundef %21)
  %23 = load ptr, ptr %6, align 8, !tbaa !206
  store i64 %22, ptr %23, align 8, !tbaa !37
  br label %24

24:                                               ; preds = %19, %16
  %25 = getelementptr inbounds nuw %struct.timespec, ptr %7, i32 0, i32 0
  %26 = load i64, ptr %25, align 8, !tbaa !222
  %27 = sitofp i64 %26 to double
  %28 = getelementptr inbounds nuw %struct.timespec, ptr %7, i32 0, i32 1
  %29 = load i64, ptr %28, align 8, !tbaa !224
  %30 = sitofp i64 %29 to double
  %31 = call double @llvm.fmuladd.f64(double %30, double 1.000000e-09, double %27)
  call void @llvm.lifetime.end.p0(i64 16, ptr %7) #17
  ret double %31
}

; Function Attrs: nounwind uwtable
define internal void @CalculateTimeInfo(ptr noundef %0, ptr noundef %1) #0 {
  %3 = alloca ptr, align 8
  %4 = alloca ptr, align 8
  %5 = alloca ptr, align 8
  %6 = alloca double, align 8
  %7 = alloca double, align 8
  %8 = alloca i64, align 8
  %9 = alloca i64, align 8
  %10 = alloca i64, align 8
  %11 = alloca double, align 8
  store ptr %0, ptr %3, align 8, !tbaa !38
  store ptr %1, ptr %4, align 8, !tbaa !210
  call void @llvm.lifetime.start.p0(i64 8, ptr %5) #17
  call void @llvm.lifetime.start.p0(i64 8, ptr %6) #17
  store double 0.000000e+00, ptr %6, align 8, !tbaa !35
  call void @llvm.lifetime.start.p0(i64 8, ptr %7) #17
  store double 0.000000e+00, ptr %7, align 8, !tbaa !35
  br label %12

12:                                               ; preds = %2
  call void @llvm.lifetime.start.p0(i64 8, ptr %8) #17
  %13 = load ptr, ptr @alsa_snd_pcm_status_sizeof, align 8, !tbaa !32
  %14 = call i64 %13()
  store i64 %14, ptr %8, align 8, !tbaa !37
  %15 = load i64, ptr %8, align 8, !tbaa !37
  %16 = alloca i8, i64 %15, align 16
  store ptr %16, ptr %5, align 8, !tbaa !98
  %17 = load ptr, ptr %5, align 8, !tbaa !98
  %18 = load i64, ptr %8, align 8, !tbaa !37
  call void @llvm.memset.p0.i64(ptr align 1 %17, i8 0, i64 %18, i1 false)
  call void @llvm.lifetime.end.p0(i64 8, ptr %8) #17
  br label %19

19:                                               ; preds = %12
  br label %20

20:                                               ; preds = %19
  %21 = load ptr, ptr %3, align 8, !tbaa !38
  %22 = getelementptr inbounds nuw %struct.PaAlsaStream, ptr %21, i32 0, i32 19
  %23 = getelementptr inbounds nuw %struct.PaAlsaStreamComponent, ptr %22, i32 0, i32 11
  %24 = load ptr, ptr %23, align 8, !tbaa !100
  %25 = icmp ne ptr %24, null
  br i1 %25, label %26, label %51

26:                                               ; preds = %20
  call void @llvm.lifetime.start.p0(i64 8, ptr %9) #17
  %27 = load ptr, ptr @alsa_snd_pcm_status, align 8, !tbaa !32
  %28 = load ptr, ptr %3, align 8, !tbaa !38
  %29 = getelementptr inbounds nuw %struct.PaAlsaStream, ptr %28, i32 0, i32 19
  %30 = getelementptr inbounds nuw %struct.PaAlsaStreamComponent, ptr %29, i32 0, i32 11
  %31 = load ptr, ptr %30, align 8, !tbaa !100
  %32 = load ptr, ptr %5, align 8, !tbaa !98
  %33 = call i32 %27(ptr noundef %31, ptr noundef %32)
  %34 = load ptr, ptr %5, align 8, !tbaa !98
  %35 = call double @StatusToTime(ptr noundef %34, i32 noundef 0, ptr noundef %9)
  store double %35, ptr %6, align 8, !tbaa !35
  %36 = load double, ptr %6, align 8, !tbaa !35
  %37 = load ptr, ptr %4, align 8, !tbaa !210
  %38 = getelementptr inbounds nuw %struct.PaStreamCallbackTimeInfo, ptr %37, i32 0, i32 1
  store double %36, ptr %38, align 8, !tbaa !211
  %39 = load double, ptr %6, align 8, !tbaa !35
  %40 = load i64, ptr %9, align 8, !tbaa !37
  %41 = sitofp i64 %40 to double
  %42 = load ptr, ptr %3, align 8, !tbaa !38
  %43 = getelementptr inbounds nuw %struct.PaAlsaStream, ptr %42, i32 0, i32 0
  %44 = getelementptr inbounds nuw %struct.PaUtilStreamRepresentation, ptr %43, i32 0, i32 6
  %45 = getelementptr inbounds nuw %struct.PaStreamInfo, ptr %44, i32 0, i32 3
  %46 = load double, ptr %45, align 8, !tbaa !171
  %47 = fdiv double %41, %46
  %48 = fsub double %39, %47
  %49 = load ptr, ptr %4, align 8, !tbaa !210
  %50 = getelementptr inbounds nuw %struct.PaStreamCallbackTimeInfo, ptr %49, i32 0, i32 0
  store double %48, ptr %50, align 8, !tbaa !213
  call void @llvm.lifetime.end.p0(i64 8, ptr %9) #17
  br label %51

51:                                               ; preds = %26, %20
  %52 = load ptr, ptr %3, align 8, !tbaa !38
  %53 = getelementptr inbounds nuw %struct.PaAlsaStream, ptr %52, i32 0, i32 20
  %54 = getelementptr inbounds nuw %struct.PaAlsaStreamComponent, ptr %53, i32 0, i32 11
  %55 = load ptr, ptr %54, align 8, !tbaa !101
  %56 = icmp ne ptr %55, null
  br i1 %56, label %57, label %99

57:                                               ; preds = %51
  call void @llvm.lifetime.start.p0(i64 8, ptr %10) #17
  call void @llvm.lifetime.start.p0(i64 8, ptr %11) #17
  %58 = load ptr, ptr @alsa_snd_pcm_status, align 8, !tbaa !32
  %59 = load ptr, ptr %3, align 8, !tbaa !38
  %60 = getelementptr inbounds nuw %struct.PaAlsaStream, ptr %59, i32 0, i32 20
  %61 = getelementptr inbounds nuw %struct.PaAlsaStreamComponent, ptr %60, i32 0, i32 11
  %62 = load ptr, ptr %61, align 8, !tbaa !101
  %63 = load ptr, ptr %5, align 8, !tbaa !98
  %64 = call i32 %58(ptr noundef %62, ptr noundef %63)
  %65 = load ptr, ptr %5, align 8, !tbaa !98
  %66 = call double @StatusToTime(ptr noundef %65, i32 noundef 0, ptr noundef %10)
  store double %66, ptr %11, align 8, !tbaa !35
  %67 = load ptr, ptr %3, align 8, !tbaa !38
  %68 = getelementptr inbounds nuw %struct.PaAlsaStream, ptr %67, i32 0, i32 19
  %69 = getelementptr inbounds nuw %struct.PaAlsaStreamComponent, ptr %68, i32 0, i32 11
  %70 = load ptr, ptr %69, align 8, !tbaa !100
  %71 = icmp ne ptr %70, null
  br i1 %71, label %72, label %80

72:                                               ; preds = %57
  %73 = load double, ptr %6, align 8, !tbaa !35
  %74 = load double, ptr %11, align 8, !tbaa !35
  %75 = fsub double %73, %74
  %76 = call double @llvm.fabs.f64(double %75)
  %77 = fcmp ogt double %76, 1.000000e-02
  br i1 %77, label %78, label %79

78:                                               ; preds = %72
  br label %79

79:                                               ; preds = %78, %72
  br label %84

80:                                               ; preds = %57
  %81 = load double, ptr %11, align 8, !tbaa !35
  %82 = load ptr, ptr %4, align 8, !tbaa !210
  %83 = getelementptr inbounds nuw %struct.PaStreamCallbackTimeInfo, ptr %82, i32 0, i32 1
  store double %81, ptr %83, align 8, !tbaa !211
  br label %84

84:                                               ; preds = %80, %79
  %85 = load ptr, ptr %4, align 8, !tbaa !210
  %86 = getelementptr inbounds nuw %struct.PaStreamCallbackTimeInfo, ptr %85, i32 0, i32 1
  %87 = load double, ptr %86, align 8, !tbaa !211
  %88 = load i64, ptr %10, align 8, !tbaa !37
  %89 = sitofp i64 %88 to double
  %90 = load ptr, ptr %3, align 8, !tbaa !38
  %91 = getelementptr inbounds nuw %struct.PaAlsaStream, ptr %90, i32 0, i32 0
  %92 = getelementptr inbounds nuw %struct.PaUtilStreamRepresentation, ptr %91, i32 0, i32 6
  %93 = getelementptr inbounds nuw %struct.PaStreamInfo, ptr %92, i32 0, i32 3
  %94 = load double, ptr %93, align 8, !tbaa !171
  %95 = fdiv double %89, %94
  %96 = fadd double %87, %95
  %97 = load ptr, ptr %4, align 8, !tbaa !210
  %98 = getelementptr inbounds nuw %struct.PaStreamCallbackTimeInfo, ptr %97, i32 0, i32 2
  store double %96, ptr %98, align 8, !tbaa !214
  call void @llvm.lifetime.end.p0(i64 8, ptr %11) #17
  call void @llvm.lifetime.end.p0(i64 8, ptr %10) #17
  br label %99

99:                                               ; preds = %84, %51
  call void @llvm.lifetime.end.p0(i64 8, ptr %7) #17
  call void @llvm.lifetime.end.p0(i64 8, ptr %6) #17
  call void @llvm.lifetime.end.p0(i64 8, ptr %5) #17
  ret void
}