; Function Attrs: nounwind uwtable
define internal fastcc void @CalculateTimeInfo(ptr noundef readonly captures(none) %0, ptr noundef nonnull captures(none) %1) unnamed_addr #2 {
  %3 = alloca %struct.timespec, align 8
  %4 = alloca %struct.timespec, align 8
  %5 = tail call i64 @snd_pcm_status_sizeof() #25, !callees !128
  %6 = alloca i8, i64 %5, align 16
  call void @llvm.memset.p0.i64(ptr nonnull align 16 %6, i8 0, i64 %5, i1 false)
  %7 = getelementptr inbounds nuw i8, ptr %0, i64 704
  %8 = load ptr, ptr %7, align 8, !tbaa !129
  %.not = icmp eq ptr %8, null
  br i1 %.not, label %24, label %9

9:                                                ; preds = %2
  %10 = call i32 @snd_pcm_status(ptr noundef nonnull %8, ptr noundef nonnull %6) #25, !callees !257
  call void @llvm.lifetime.start.p0(i64 16, ptr nonnull %4) #25
  call void @snd_pcm_status_get_htstamp(ptr noundef nonnull %6, ptr noundef nonnull %4) #25, !callees !131
  %11 = call i64 @snd_pcm_status_get_delay(ptr noundef nonnull %6) #25, !callees !258
  %12 = load i64, ptr %4, align 8, !tbaa !132
  %13 = sitofp i64 %12 to double
  %14 = getelementptr inbounds nuw i8, ptr %4, i64 8
  %15 = load i64, ptr %14, align 8, !tbaa !134
  %16 = sitofp i64 %15 to double
  %17 = call double @llvm.fmuladd.f64(double %16, double 1.000000e-09, double %13)
  call void @llvm.lifetime.end.p0(i64 16, ptr nonnull %4) #25
  %18 = getelementptr inbounds nuw i8, ptr %1, i64 8
  store double %17, ptr %18, align 8, !tbaa !259
  %19 = sitofp i64 %11 to double
  %20 = getelementptr inbounds nuw i8, ptr %0, i64 72
  %21 = load double, ptr %20, align 8, !tbaa !201
  %22 = fdiv double %19, %21
  %23 = fsub double %17, %22
  store double %23, ptr %1, align 8, !tbaa !261
  br label %24

24:                                               ; preds = %9, %2
  %25 = getelementptr inbounds nuw i8, ptr %0, i64 832
  %26 = load ptr, ptr %25, align 8, !tbaa !130
  %.not23 = icmp eq ptr %26, null
  br i1 %.not23, label %47, label %27

27:                                               ; preds = %24
  %28 = call i32 @snd_pcm_status(ptr noundef nonnull %26, ptr noundef nonnull %6) #25, !callees !257
  call void @llvm.lifetime.start.p0(i64 16, ptr nonnull %3) #25
  call void @snd_pcm_status_get_htstamp(ptr noundef nonnull %6, ptr noundef nonnull %3) #25, !callees !131
  %29 = call i64 @snd_pcm_status_get_delay(ptr noundef nonnull %6) #25, !callees !258
  %30 = load i64, ptr %3, align 8, !tbaa !132
  %31 = getelementptr inbounds nuw i8, ptr %3, i64 8
  %32 = load i64, ptr %31, align 8, !tbaa !134
  call void @llvm.lifetime.end.p0(i64 16, ptr nonnull %3) #25
  %33 = load ptr, ptr %7, align 8, !tbaa !129
  %.not24 = icmp eq ptr %33, null
  br i1 %.not24, label %34, label %._crit_edge

._crit_edge:                                      ; preds = %27
  %.phi.trans.insert = getelementptr inbounds nuw i8, ptr %1, i64 8
  %.pre = load double, ptr %.phi.trans.insert, align 8, !tbaa !259
  br label %39

34:                                               ; preds = %27
  %35 = sitofp i64 %32 to double
  %36 = sitofp i64 %30 to double
  %37 = call double @llvm.fmuladd.f64(double %35, double 1.000000e-09, double %36)
  %38 = getelementptr inbounds nuw i8, ptr %1, i64 8
  store double %37, ptr %38, align 8, !tbaa !259
  br label %39

39:                                               ; preds = %._crit_edge, %34
  %40 = phi double [ %.pre, %._crit_edge ], [ %37, %34 ]
  %41 = sitofp i64 %29 to double
  %42 = getelementptr inbounds nuw i8, ptr %0, i64 72
  %43 = load double, ptr %42, align 8, !tbaa !201
  %44 = fdiv double %41, %43
  %45 = fadd double %40, %44
  %46 = getelementptr inbounds nuw i8, ptr %1, i64 16
  store double %45, ptr %46, align 8, !tbaa !262
  br label %47

47:                                               ; preds = %39, %24
  ret void
}